target datalayout = "e-m:e-p270:32:32-p271:32:32-p272:64:64-i64:64-i128:128-f80:128-n8:16:32:64-S128"
target triple = "x86_64-pc-linux-gnu"

%struct.ObjectAddress = type { i32, i32, i32 }
%struct.AlterExtensionContentsStmt = type { i32, ptr, i32, i32, ptr }

@.str.1 = private unnamed_addr constant [12 x i8] c"extension.c\00", align 1
@object_access_hook = external global ptr, align 8
@.str.30 = private unnamed_addr constant [50 x i8] c"cannot add an object of this type to an extension\00", align 1
@__func__.ExecAlterExtensionContentsStmt = private unnamed_addr constant [31 x i8] c"ExecAlterExtensionContentsStmt\00", align 1

; Function Attrs: nounwind uwtable
define dso_local { i64, i32 } @ExecAlterExtensionContentsStmt(ptr noundef %0, ptr noundef %1) #0 {
  %3 = alloca %struct.ObjectAddress, align 4
  %4 = alloca ptr, align 8
  %5 = alloca ptr, align 8
  %6 = alloca %struct.ObjectAddress, align 4
  %7 = alloca ptr, align 8
  %8 = alloca %struct.ObjectAddress, align 4
  %9 = alloca { i64, i32 }, align 8
  %10 = alloca %struct.ObjectAddress, align 4
  %11 = alloca { i64, i32 }, align 8
  %12 = alloca { i64, i32 }, align 4
  %13 = alloca { i64, i32 }, align 4
  %14 = alloca { i64, i32 }, align 4
  %15 = alloca { i64, i32 }, align 8
  store ptr %0, ptr %4, align 8
  store ptr %1, ptr %5, align 8
  call void @llvm.lifetime.start.p0(i64 12, ptr %6) #12
  call void @llvm.lifetime.start.p0(i64 8, ptr %7) #12
  %16 = load ptr, ptr %4, align 8
  %17 = getelementptr inbounds nuw %struct.AlterExtensionContentsStmt, ptr %16, i32 0, i32 3
  %18 = load i32, ptr %17, align 4
  switch i32 %18, label %31 [
    i32 9, label %19
    i32 15, label %19
    i32 20, label %19
    i32 30, label %19
    i32 33, label %19
    i32 39, label %19
    i32 38, label %19
    i32 42, label %19
  ]

19:                                               ; preds = %2, %2, %2, %2, %2, %2, %2, %2
  br label %20

20:                                               ; preds = %19
  br i1 true, label %21, label %23

21:                                               ; preds = %20
  %22 = call zeroext i1 @errstart_cold(i32 noundef 21, ptr noundef null) #13
  br i1 %22, label %25, label %28

23:                                               ; preds = %20
  %24 = call zeroext i1 @errstart(i32 noundef 21, ptr noundef null)
  br i1 %24, label %25, label %28

25:                                               ; preds = %23, %21
  %26 = call i32 @errcode(i32 noundef 117833860)
  %27 = call i32 (ptr, ...) @errmsg(ptr noundef @.str.30)
  call void @errfinish(ptr noundef @.str.1, i32 noundef 3422, ptr noundef @__func__.ExecAlterExtensionContentsStmt)
  br label %28

28:                                               ; preds = %25, %23, %21
  unreachable

29:                                               ; No predecessors!
  br label %30

30:                                               ; preds = %29
  br label %32

31:                                               ; preds = %2
  br label %32

32:                                               ; preds = %31, %30
  call void @llvm.lifetime.start.p0(i64 12, ptr %8) #12
  %33 = load ptr, ptr %4, align 8
  %34 = getelementptr inbounds nuw %struct.AlterExtensionContentsStmt, ptr %33, i32 0, i32 1
  %35 = load ptr, ptr %34, align 8
  %36 = call ptr @makeString(ptr noundef %35)
  %37 = call { i64, i32 } @get_object_address(i32 noundef 15, ptr noundef %36, ptr noundef %7, i32 noundef 1, i1 noundef zeroext false)
  store { i64, i32 } %37, ptr %9, align 8
  call void @llvm.memcpy.p0.p0.i64(ptr align 4 %8, ptr align 8 %9, i64 12, i1 false)
  call void @llvm.memcpy.p0.p0.i64(ptr align 4 %3, ptr align 4 %8, i64 12, i1 false)
  call void @llvm.lifetime.end.p0(i64 12, ptr %8) #12
  %38 = getelementptr inbounds nuw %struct.ObjectAddress, ptr %3, i32 0, i32 1
  %39 = load i32, ptr %38, align 4
  %40 = call i32 @GetUserId()
  %41 = call zeroext i1 @object_ownercheck(i32 noundef 3079, i32 noundef %39, i32 noundef %40)
  br i1 %41, label %46, label %42

42:                                               ; preds = %32
  %43 = load ptr, ptr %4, align 8
  %44 = getelementptr inbounds nuw %struct.AlterExtensionContentsStmt, ptr %43, i32 0, i32 1
  %45 = load ptr, ptr %44, align 8
  call void @aclcheck_error(i32 noundef 2, i32 noundef 15, ptr noundef %45)
  br label %46

46:                                               ; preds = %42, %32
  call void @llvm.lifetime.start.p0(i64 12, ptr %10) #12
  %47 = load ptr, ptr %4, align 8
  %48 = getelementptr inbounds nuw %struct.AlterExtensionContentsStmt, ptr %47, i32 0, i32 3
  %49 = load i32, ptr %48, align 4
  %50 = load ptr, ptr %4, align 8
  %51 = getelementptr inbounds nuw %struct.AlterExtensionContentsStmt, ptr %50, i32 0, i32 4
  %52 = load ptr, ptr %51, align 8
  %53 = call { i64, i32 } @get_object_address(i32 noundef %49, ptr noundef %52, ptr noundef %7, i32 noundef 4, i1 noundef zeroext false)
  store { i64, i32 } %53, ptr %11, align 8
  call void @llvm.memcpy.p0.p0.i64(ptr align 4 %10, ptr align 8 %11, i64 12, i1 false)
  call void @llvm.memcpy.p0.p0.i64(ptr align 4 %6, ptr align 4 %10, i64 12, i1 false)
  call void @llvm.lifetime.end.p0(i64 12, ptr %10) #12
  %54 = load ptr, ptr %5, align 8
  %55 = icmp ne ptr %54, null
  br i1 %55, label %56, label %58

56:                                               ; preds = %46
  %57 = load ptr, ptr %5, align 8
  call void @llvm.memcpy.p0.p0.i64(ptr align 4 %57, ptr align 4 %6, i64 12, i1 false)
  br label %58

58:                                               ; preds = %56, %46
  %59 = call i32 @GetUserId()
  %60 = load ptr, ptr %4, align 8
  %61 = getelementptr inbounds nuw %struct.AlterExtensionContentsStmt, ptr %60, i32 0, i32 3
  %62 = load i32, ptr %61, align 4
  %63 = load ptr, ptr %4, align 8
  %64 = getelementptr inbounds nuw %struct.AlterExtensionContentsStmt, ptr %63, i32 0, i32 4
  %65 = load ptr, ptr %64, align 8
  %66 = load ptr, ptr %7, align 8
  call void @llvm.memcpy.p0.p0.i64(ptr align 4 %12, ptr align 4 %6, i64 12, i1 false)
  %67 = getelementptr inbounds nuw { i64, i32 }, ptr %12, i32 0, i32 0
  %68 = load i64, ptr %67, align 4
  %69 = getelementptr inbounds nuw { i64, i32 }, ptr %12, i32 0, i32 1
  %70 = load i32, ptr %69, align 4
  call void @check_object_ownership(i32 noundef %59, i32 noundef %62, i64 %68, i32 %70, ptr noundef %65, ptr noundef %66)
  %71 = load ptr, ptr %4, align 8
  call void @llvm.memcpy.p0.p0.i64(ptr align 4 %13, ptr align 4 %3, i64 12, i1 false)
  %72 = getelementptr inbounds nuw { i64, i32 }, ptr %13, i32 0, i32 0
  %73 = load i64, ptr %72, align 4
  %74 = getelementptr inbounds nuw { i64, i32 }, ptr %13, i32 0, i32 1
  %75 = load i32, ptr %74, align 4
  call void @llvm.memcpy.p0.p0.i64(ptr align 4 %14, ptr align 4 %6, i64 12, i1 false)
  %76 = getelementptr inbounds nuw { i64, i32 }, ptr %14, i32 0, i32 0
  %77 = load i64, ptr %76, align 4
  %78 = getelementptr inbounds nuw { i64, i32 }, ptr %14, i32 0, i32 1
  %79 = load i32, ptr %78, align 4
  call void @ExecAlterExtensionContentsRecurse(ptr noundef %71, i64 %73, i32 %75, i64 %77, i32 %79)
  br label %80

80:                                               ; preds = %58
  %81 = load ptr, ptr @object_access_hook, align 8
  %82 = icmp ne ptr %81, null
  br i1 %82, label %83, label %86

83:                                               ; preds = %80
  %84 = getelementptr inbounds nuw %struct.ObjectAddress, ptr %3, i32 0, i32 1
  %85 = load i32, ptr %84, align 4
  call void @RunObjectPostAlterHook(i32 noundef 3079, i32 noundef %85, i32 noundef 0, i32 noundef 0, i1 noundef zeroext false)
  br label %86

86:                                               ; preds = %83, %80
  br label %87

87:                                               ; preds = %86
  br label %88

88:                                               ; preds = %87
  %89 = load ptr, ptr %7, align 8
  %90 = icmp ne ptr %89, null
  br i1 %90, label %91, label %93

91:                                               ; preds = %88
  %92 = load ptr, ptr %7, align 8
  call void @relation_close(ptr noundef %92, i32 noundef 0)
  br label %93

93:                                               ; preds = %91, %88
  call void @llvm.lifetime.end.p0(i64 8, ptr %7) #12
  call void @llvm.lifetime.end.p0(i64 12, ptr %6) #12
  call void @llvm.memcpy.p0.p0.i64(ptr align 8 %15, ptr align 4 %3, i64 12, i1 false)
  %94 = load { i64, i32 }, ptr %15, align 8
  ret { i64, i32 } %94
}