; Function Attrs: nounwind uwtable
define dso_local { i64, i32 } @ExecAlterExtensionContentsStmt(ptr noundef %0, ptr noundef writeonly captures(address_is_null) %1) local_unnamed_addr #0 {
  %3 = alloca ptr, align 8
  call void @llvm.lifetime.start.p0(i64 8, ptr nonnull %3) #15
  %4 = getelementptr inbounds nuw i8, ptr %0, i64 20
  %5 = load i32, ptr %4, align 4
  switch i32 %5, label %10 [
    i32 9, label %6
    i32 15, label %6
    i32 20, label %6
    i32 30, label %6
    i32 33, label %6
    i32 39, label %6
    i32 38, label %6
    i32 42, label %6
  ]

6:                                                ; preds = %2, %2, %2, %2, %2, %2, %2, %2
  %7 = tail call zeroext i1 @errstart_cold(i32 noundef 21, ptr noundef null) #16
  tail call void @llvm.assume(i1 %7)
  %8 = tail call i32 @errcode(i32 noundef 117833860) #15
  %9 = tail call i32 (ptr, ...) @errmsg(ptr noundef nonnull @.str.30) #15
  tail call void @errfinish(ptr noundef nonnull @.str.1, i32 noundef 3422, ptr noundef nonnull @__func__.ExecAlterExtensionContentsStmt) #15
  unreachable

10:                                               ; preds = %2
  %11 = getelementptr inbounds nuw i8, ptr %0, i64 8
  %12 = load ptr, ptr %11, align 8
  %13 = tail call ptr @makeString(ptr noundef %12) #15
  %14 = call { i64, i32 } @get_object_address(i32 noundef 15, ptr noundef %13, ptr noundef nonnull %3, i32 noundef 1, i1 noundef zeroext false) #15
  %.fca.0.extract10 = extractvalue { i64, i32 } %14, 0
  %.fca.1.extract11 = extractvalue { i64, i32 } %14, 1
  %.sroa.3.0.extract.shift = lshr i64 %.fca.0.extract10, 32
  %.sroa.3.0.extract.trunc = trunc nuw i64 %.sroa.3.0.extract.shift to i32
  %15 = call i32 @GetUserId() #15
  %16 = call zeroext i1 @object_ownercheck(i32 noundef 3079, i32 noundef %.sroa.3.0.extract.trunc, i32 noundef %15) #15
  br i1 %16, label %19, label %17

17:                                               ; preds = %10
  %18 = load ptr, ptr %11, align 8
  call void @aclcheck_error(i32 noundef 2, i32 noundef 15, ptr noundef %18) #15
  br label %19

19:                                               ; preds = %17, %10
  %20 = load i32, ptr %4, align 4
  %21 = getelementptr inbounds nuw i8, ptr %0, i64 24
  %22 = load ptr, ptr %21, align 8
  %23 = call { i64, i32 } @get_object_address(i32 noundef %20, ptr noundef %22, ptr noundef nonnull %3, i32 noundef 4, i1 noundef zeroext false) #15
  %.fca.0.extract = extractvalue { i64, i32 } %23, 0
  %.fca.1.extract = extractvalue { i64, i32 } %23, 1
  %.not = icmp eq ptr %1, null
  br i1 %.not, label %25, label %24

24:                                               ; preds = %19
  store i64 %.fca.0.extract, ptr %1, align 4
  %.sroa.6.0..sroa_idx = getelementptr inbounds nuw i8, ptr %1, i64 8
  store i32 %.fca.1.extract, ptr %.sroa.6.0..sroa_idx, align 4
  br label %25

25:                                               ; preds = %24, %19
  %26 = call i32 @GetUserId() #15
  %27 = load i32, ptr %4, align 4
  %28 = load ptr, ptr %21, align 8
  %29 = load ptr, ptr %3, align 8
  call void @check_object_ownership(i32 noundef %26, i32 noundef %27, i64 %.fca.0.extract, i32 %.fca.1.extract, ptr noundef %28, ptr noundef %29) #15
  call fastcc void @ExecAlterExtensionContentsRecurse(ptr noundef nonnull %0, i64 %.fca.0.extract10, i32 %.fca.1.extract11, i64 %.fca.0.extract, i32 %.fca.1.extract)
  %30 = load ptr, ptr @object_access_hook, align 8
  %.not38 = icmp eq ptr %30, null
  br i1 %.not38, label %32, label %31

31:                                               ; preds = %25
  call void @RunObjectPostAlterHook(i32 noundef 3079, i32 noundef %.sroa.3.0.extract.trunc, i32 noundef 0, i32 noundef 0, i1 noundef zeroext false) #15
  br label %32

32:                                               ; preds = %31, %25
  %33 = load ptr, ptr %3, align 8
  %.not39 = icmp eq ptr %33, null
  br i1 %.not39, label %35, label %34

34:                                               ; preds = %32
  call void @relation_close(ptr noundef nonnull %33, i32 noundef 0) #15
  br label %35

35:                                               ; preds = %34, %32
  call void @llvm.lifetime.end.p0(i64 8, ptr nonnull %3) #15
  ret { i64, i32 } %14
}